target datalayout = "e-m:e-p270:32:32-p271:32:32-p272:64:64-i64:64-i128:128-f80:128-n8:16:32:64-S128"
target triple = "x86_64-pc-linux-gnu"

%struct.AVCodecContext = type { ptr, i32, i32, ptr, i32, i32, ptr, ptr, ptr, i64, i32, i32, ptr, i32, %struct.AVRational, %struct.AVRational, %struct.AVRational, i32, i32, i32, i32, i32, %struct.AVRational, i32, i32, i32, i32, i32, i32, i32, i32, i32, i32, i32, ptr, ptr, i32, float, float, float, float, float, float, float, float, float, i32, i32, i32, i32, i32, i32, i32, i32, i32, i32, i32, i32, ptr, ptr, ptr, i32, i32, i32, i32, i32, i32, i32, i32, i32, i32, %struct.AVChannelLayout, i32, i32, i32, i32, i32, i32, i32, i32, ptr, i32, i32, i32, float, float, i32, i32, i32, i32, i32, ptr, i64, i64, float, float, i32, i32, ptr, ptr, i32, i32, i32, i32, i32, ptr, ptr, ptr, ptr, i32, i32, [8 x i64], i32, i32, i32, i32, i32, i32, i32, ptr, ptr, i32, i32, i32, i32, i32, i32, i32, i32, i32, i32, ptr, ptr, i32, i32, ptr, ptr, ptr, ptr, i32, i32, i64, i32, i32, i64, ptr, i64, ptr, i32, ptr, i32 }
%struct.AVRational = type { i32, i32 }
%struct.AVChannelLayout = type { i32, i32, %union.anon.1, ptr }
%union.anon.1 = type { i64 }
%struct.VAAPIEncodeContext = type { %struct.FFHWBaseEncodeContext, ptr, i32, i32, i32, i32, i32, i32, ptr, ptr, i32, i32, i32, i32, i32, i32, [4 x %struct._VAConfigAttrib], i32, i32, i32, ptr, ptr, [4 x i32], [4 x ptr], [4 x i64], i32, %struct._VAEncMiscParameterRateControl, %struct._VAEncMiscParameterHRD, %struct._VAEncMiscParameterFrameRate, %struct._VAEncMiscParameterBufferMaxFrameSize, %struct._VAEncMiscParameterBufferQualityLevel, ptr, ptr, i32, i32, i32, i32, i32, i32, [20 x i32], [22 x i32], [21 x i32], [23 x i32], i32, i32, ptr, i32, i32 }
%struct.FFHWBaseEncodeContext = type { ptr, ptr, ptr, i32, i32, i32, i32, i32, i32, ptr, ptr, ptr, ptr, ptr, ptr, ptr, ptr, [2 x ptr], i32, i64, i64, i64, i64, i64, i64, i64, [112 x i64], i32, i32, i32, i32, i32, i32, i32, i32, i32, i32, i32, i32, i32, i32, i32, i32, ptr, i32, ptr, i32, ptr }
%struct._VAConfigAttrib = type { i32, i32 }
%struct._VAEncMiscParameterRateControl = type { i32, i32, i32, i32, i32, i32, %union.anon.2, i32, i32, i32, i32, [4 x i32] }
%union.anon.2 = type { %struct.anon }
%struct.anon = type { i32 }
%struct._VAEncMiscParameterHRD = type { i32, i32, [4 x i32] }
%struct._VAEncMiscParameterFrameRate = type { i32, %union.anon.3, [4 x i32] }
%union.anon.3 = type { %struct.anon.4 }
%struct.anon.4 = type { i32 }
%struct._VAEncMiscParameterBufferMaxFrameSize = type { i32, i32, [4 x i32] }
%struct._VAEncMiscParameterBufferQualityLevel = type { i32, [4 x i32] }
%struct.VAAPIEncodeH265Context = type { %struct.VAAPIEncodeContext, i32, i32, i32, i32, i32, i32, i32, i32, i32, i32, i32, %struct.FFHWBaseEncodeH265, %struct.FFHWBaseEncodeH265Opts, %struct.H265RawAUD, %struct.H265RawSlice, %struct.SEIRawMasteringDisplayColourVolume, %struct.SEIRawContentLightLevelInfo, %struct.SEIRawUserDataRegistered, ptr, ptr, %struct.CodedBitstreamFragment, i32, i32 }
%struct.FFHWBaseEncodeH265 = type { %struct.H265RawVPS, %struct.H265RawSPS, %struct.H265RawPPS, i32 }
%struct.H265RawVPS = type { %struct.H265RawNALUnitHeader, i8, i8, i8, i8, i8, i8, %struct.H265RawProfileTierLevel, i8, [7 x i8], [7 x i8], [7 x i32], i8, i16, [1024 x [63 x i8]], i8, i32, i32, i8, i32, i16, [1024 x i16], [1024 x i8], [1024 x %struct.H265RawHRDParameters], i8, %struct.H265RawExtensionData }
%struct.H265RawNALUnitHeader = type { i8, i8, i8 }
%struct.H265RawProfileTierLevel = type { i8, i8, i8, [32 x i8], i8, i8, i8, i8, i8, i8, i8, i8, i8, i8, i8, i8, i8, i8, i8, i8, [7 x i8], [7 x i8], [7 x i8], [7 x i8], [7 x i8], [7 x [32 x i8]], [7 x i8], [7 x i8], [7 x i8], [7 x i8], [7 x i8], [7 x i8], [7 x i8], [7 x i8], [7 x i8], [7 x i8], [7 x i8], [7 x i8], [7 x i8], [7 x i8], [7 x i8], [7 x i8] }
%struct.H265RawHRDParameters = type { i8, i8, i8, i8, i8, i8, i8, i8, i8, i8, i8, i8, i8, [7 x i8], [7 x i8], [7 x i16], [7 x i8], [7 x i8], [7 x %struct.H265RawSubLayerHRDParameters], [7 x %struct.H265RawSubLayerHRDParameters] }
%struct.H265RawSubLayerHRDParameters = type { [32 x i32], [32 x i32], [32 x i32], [32 x i32], [32 x i8] }
%struct.H265RawExtensionData = type { ptr, ptr, i64 }
%struct.H265RawSPS = type { %struct.H265RawNALUnitHeader, i8, i8, i8, i8, %struct.H265RawProfileTierLevel, i8, i8, i8, i8, i8, i16, i16, i8, i16, i16, i16, i16, i8, i8, i8, i8, [7 x i8], [7 x i8], [7 x i32], i8, i8, i8, i8, i8, i8, i8, i8, i8, i8, %struct.H265RawScalingList, i8, i8, i8, i8, i8, i8, i8, i8, i8, [64 x %struct.H265RawSTRefPicSet], i8, i8, [32 x i16], [32 x i8], i8, i8, i8, %struct.H265RawVUI, i8, i8, i8, i8, i8, i8, %struct.H265RawExtensionData, i8, i8, i8, i8, i8, i8, i8, i8, i8, i8, i8, i8, i8, i8, i8, [3 x [128 x i16]], i8, i8, i8 }
%struct.H265RawScalingList = type { [4 x [6 x i8]], [4 x [6 x i8]], [4 x [6 x i16]], [4 x [6 x [64 x i8]]] }
%struct.H265RawSTRefPicSet = type { i8, i8, i8, i16, [16 x i8], [16 x i8], i8, i8, [16 x i16], [16 x i8], [16 x i16], [16 x i8] }
%struct.H265RawVUI = type { i8, i8, i16, i16, i8, i8, i8, i8, i8, i8, i8, i8, i8, i8, i8, i8, i8, i8, i8, i8, i16, i16, i16, i16, i8, i32, i32, i8, i32, i8, %struct.H265RawHRDParameters, i8, i8, i8, i8, i16, i8, i8, i8, i8 }
%struct.H265RawPPS = type { %struct.H265RawNALUnitHeader, i8, i8, i8, i8, i8, i8, i8, i8, i8, i8, i8, i8, i8, i8, i8, i8, i8, i8, i8, i8, i8, i8, i8, i8, i8, [20 x i16], [22 x i16], i8, i8, i8, i8, i8, i8, i8, i8, %struct.H265RawScalingList, i8, i8, i8, i8, i8, i8, i8, i8, i8, %struct.H265RawExtensionData, i8, i8, i8, i8, i8, [6 x i8], [6 x i8], i8, i8, i8, i8, i8, i8, i8, i8, i8, i8, i8, i8, i8, [3 x [128 x i16]], i8, i8, i8, i8, [64 x i8], [64 x i8], [64 x i16], [64 x i16], [64 x i16], [64 x i16], [64 x i8], [64 x i16], [64 x i16], [64 x i16], [64 x i16], [64 x i8], [64 x i8], [64 x i8], [64 x i8], [64 x i8], i8, i8, [62 x i8], i8, i8, i8, i8, i8, i8, i8, i8, i16, i16, [2 x i8], [12 x [2 x [2 x [4 x i8]]]], [12 x [2 x [2 x [4 x [3 x i8]]]]], [12 x [2 x [2 x [4 x [3 x i32]]]]], [12 x [2 x [2 x [4 x [3 x i8]]]]] }
%struct.FFHWBaseEncodeH265Opts = type { i32, i32, i32, i32, i32, i32, i32, i32, [22 x i32], [22 x i32] }
%struct.H265RawAUD = type { %struct.H265RawNALUnitHeader, i8 }
%struct.H265RawSlice = type { %struct.H265RawSliceHeader, ptr, ptr, i64, i32 }
%struct.H265RawSliceHeader = type { %struct.H265RawNALUnitHeader, i8, i8, i8, i8, i16, [8 x i8], i8, i8, i8, i16, i8, %struct.H265RawSTRefPicSet, i8, i8, i8, [16 x i8], [16 x i8], [16 x i8], [16 x i8], [16 x i32], i8, i8, i8, i8, i8, i8, i8, [16 x i8], i8, [16 x i8], i8, i8, i8, i8, i8, i8, [16 x i8], [16 x i8], [16 x i8], [16 x i16], [16 x [2 x i8]], [16 x [2 x i16]], [16 x i8], [16 x i8], [16 x i8], [16 x i16], [16 x [2 x i8]], [16 x [2 x i16]], i8, i8, i8, i8, i8, i8, i8, i8, i8, i8, i8, i8, i8, i8, i16, i8, [2700 x i32], i16, [256 x i8] }
%struct.SEIRawMasteringDisplayColourVolume = type { [3 x i16], [3 x i16], i16, i16, i32, i32 }
%struct.SEIRawContentLightLevelInfo = type { i16, i16 }
%struct.SEIRawUserDataRegistered = type { i8, i8, ptr, i64 }
%struct.CodedBitstreamFragment = type { ptr, i64, i64, ptr, i32, i32, ptr }

@.str.105 = private unnamed_addr constant [36 x i8] c"Failed to add NAL unit: type = %d.\0A\00", align 1
@.str.106 = private unnamed_addr constant [32 x i8] c"Failed to write packed header.\0A\00", align 1
@.str.107 = private unnamed_addr constant [35 x i8] c"Access unit too large: %zu < %zu.\0A\00", align 1

; Function Attrs: nounwind uwtable
define internal i32 @vaapi_encode_h265_write_access_unit(ptr noundef %0, ptr noundef %1, ptr noundef %2, ptr noundef %3) #3 {
  %5 = alloca i32, align 4
  %6 = alloca ptr, align 8
  %7 = alloca ptr, align 8
  %8 = alloca ptr, align 8
  %9 = alloca ptr, align 8
  %10 = alloca ptr, align 8
  %11 = alloca i32, align 4
  %12 = alloca i32, align 4
  store ptr %0, ptr %6, align 8, !tbaa !4
  store ptr %1, ptr %7, align 8, !tbaa !399
  store ptr %2, ptr %8, align 8, !tbaa !400
  store ptr %3, ptr %9, align 8, !tbaa !402
  call void @llvm.lifetime.start.p0(i64 8, ptr %10) #10
  %13 = load ptr, ptr %6, align 8, !tbaa !4
  %14 = getelementptr inbounds nuw %struct.AVCodecContext, ptr %13, i32 0, i32 6
  %15 = load ptr, ptr %14, align 8, !tbaa !9
  store ptr %15, ptr %10, align 8, !tbaa !31
  call void @llvm.lifetime.start.p0(i64 4, ptr %11) #10
  %16 = load ptr, ptr %10, align 8, !tbaa !31
  %17 = getelementptr inbounds nuw %struct.VAAPIEncodeH265Context, ptr %16, i32 0, i32 20
  %18 = load ptr, ptr %17, align 8, !tbaa !405
  %19 = load ptr, ptr %9, align 8, !tbaa !402
  %20 = call i32 @ff_cbs_write_fragment_data(ptr noundef %18, ptr noundef %19)
  store i32 %20, ptr %11, align 4, !tbaa !92
  %21 = load i32, ptr %11, align 4, !tbaa !92
  %22 = icmp slt i32 %21, 0
  br i1 %22, label %23, label %26

23:                                               ; preds = %4
  %24 = load ptr, ptr %6, align 8, !tbaa !4
  call void (ptr, i32, ptr, ...) @av_log(ptr noundef %24, i32 noundef 16, ptr noundef @.str.106)
  %25 = load i32, ptr %11, align 4, !tbaa !92
  store i32 %25, ptr %5, align 4
  store i32 1, ptr %12, align 4
  br label %67

26:                                               ; preds = %4
  %27 = load ptr, ptr %8, align 8, !tbaa !400
  %28 = load i64, ptr %27, align 8, !tbaa !310
  %29 = load ptr, ptr %9, align 8, !tbaa !402
  %30 = getelementptr inbounds nuw %struct.CodedBitstreamFragment, ptr %29, i32 0, i32 1
  %31 = load i64, ptr %30, align 8, !tbaa !411
  %32 = mul i64 8, %31
  %33 = load ptr, ptr %9, align 8, !tbaa !402
  %34 = getelementptr inbounds nuw %struct.CodedBitstreamFragment, ptr %33, i32 0, i32 2
  %35 = load i64, ptr %34, align 8, !tbaa !412
  %36 = sub i64 %32, %35
  %37 = icmp ult i64 %28, %36
  br i1 %37, label %38, label %50

38:                                               ; preds = %26
  %39 = load ptr, ptr %6, align 8, !tbaa !4
  %40 = load ptr, ptr %8, align 8, !tbaa !400
  %41 = load i64, ptr %40, align 8, !tbaa !310
  %42 = load ptr, ptr %9, align 8, !tbaa !402
  %43 = getelementptr inbounds nuw %struct.CodedBitstreamFragment, ptr %42, i32 0, i32 1
  %44 = load i64, ptr %43, align 8, !tbaa !411
  %45 = mul i64 8, %44
  %46 = load ptr, ptr %9, align 8, !tbaa !402
  %47 = getelementptr inbounds nuw %struct.CodedBitstreamFragment, ptr %46, i32 0, i32 2
  %48 = load i64, ptr %47, align 8, !tbaa !412
  %49 = sub i64 %45, %48
  call void (ptr, i32, ptr, ...) @av_log(ptr noundef %39, i32 noundef 16, ptr noundef @.str.107, i64 noundef %41, i64 noundef %49)
  store i32 -28, ptr %5, align 4
  store i32 1, ptr %12, align 4
  br label %67

50:                                               ; preds = %26
  %51 = load ptr, ptr %7, align 8, !tbaa !399
  %52 = load ptr, ptr %9, align 8, !tbaa !402
  %53 = getelementptr inbounds nuw %struct.CodedBitstreamFragment, ptr %52, i32 0, i32 0
  %54 = load ptr, ptr %53, align 8, !tbaa !413
  %55 = load ptr, ptr %9, align 8, !tbaa !402
  %56 = getelementptr inbounds nuw %struct.CodedBitstreamFragment, ptr %55, i32 0, i32 1
  %57 = load i64, ptr %56, align 8, !tbaa !411
  call void @llvm.memcpy.p0.p0.i64(ptr align 1 %51, ptr align 1 %54, i64 %57, i1 false)
  %58 = load ptr, ptr %9, align 8, !tbaa !402
  %59 = getelementptr inbounds nuw %struct.CodedBitstreamFragment, ptr %58, i32 0, i32 1
  %60 = load i64, ptr %59, align 8, !tbaa !411
  %61 = mul i64 8, %60
  %62 = load ptr, ptr %9, align 8, !tbaa !402
  %63 = getelementptr inbounds nuw %struct.CodedBitstreamFragment, ptr %62, i32 0, i32 2
  %64 = load i64, ptr %63, align 8, !tbaa !412
  %65 = sub i64 %61, %64
  %66 = load ptr, ptr %8, align 8, !tbaa !400
  store i64 %65, ptr %66, align 8, !tbaa !310
  store i32 0, ptr %5, align 4
  store i32 1, ptr %12, align 4
  br label %67

67:                                               ; preds = %50, %38, %23
  call void @llvm.lifetime.end.p0(i64 4, ptr %11) #10
  call void @llvm.lifetime.end.p0(i64 8, ptr %10) #10
  %68 = load i32, ptr %5, align 4
  ret i32 %68
}

; Function Attrs: nounwind uwtable
define internal i32 @vaapi_encode_h265_add_nal(ptr noundef %0, ptr noundef %1, ptr noundef %2) #3 {
  %4 = alloca i32, align 4
  %5 = alloca ptr, align 8
  %6 = alloca ptr, align 8
  %7 = alloca ptr, align 8
  %8 = alloca ptr, align 8
  %9 = alloca i32, align 4
  %10 = alloca i32, align 4
  store ptr %0, ptr %5, align 8, !tbaa !4
  store ptr %1, ptr %6, align 8, !tbaa !402
  store ptr %2, ptr %7, align 8, !tbaa !408
  call void @llvm.lifetime.start.p0(i64 8, ptr %8) #10
  %11 = load ptr, ptr %7, align 8, !tbaa !408
  store ptr %11, ptr %8, align 8, !tbaa !409
  call void @llvm.lifetime.start.p0(i64 4, ptr %9) #10
  %12 = load ptr, ptr %6, align 8, !tbaa !402
  %13 = load ptr, ptr %8, align 8, !tbaa !409
  %14 = getelementptr inbounds nuw %struct.H265RawNALUnitHeader, ptr %13, i32 0, i32 0
  %15 = load i8, ptr %14, align 1, !tbaa !273
  %16 = zext i8 %15 to i32
  %17 = load ptr, ptr %7, align 8, !tbaa !408
  %18 = call i32 @ff_cbs_insert_unit_content(ptr noundef %12, i32 noundef -1, i32 noundef %16, ptr noundef %17, ptr noundef null)
  store i32 %18, ptr %9, align 4, !tbaa !92
  %19 = load i32, ptr %9, align 4, !tbaa !92
  %20 = icmp slt i32 %19, 0
  br i1 %20, label %21, label %28

21:                                               ; preds = %3
  %22 = load ptr, ptr %5, align 8, !tbaa !4
  %23 = load ptr, ptr %8, align 8, !tbaa !409
  %24 = getelementptr inbounds nuw %struct.H265RawNALUnitHeader, ptr %23, i32 0, i32 0
  %25 = load i8, ptr %24, align 1, !tbaa !273
  %26 = zext i8 %25 to i32
  call void (ptr, i32, ptr, ...) @av_log(ptr noundef %22, i32 noundef 16, ptr noundef @.str.105, i32 noundef %26)
  %27 = load i32, ptr %9, align 4, !tbaa !92
  store i32 %27, ptr %4, align 4
  store i32 1, ptr %10, align 4
  br label %29

28:                                               ; preds = %3
  store i32 0, ptr %4, align 4
  store i32 1, ptr %10, align 4
  br label %29

29:                                               ; preds = %28, %21
  call void @llvm.lifetime.end.p0(i64 4, ptr %9) #10
  call void @llvm.lifetime.end.p0(i64 8, ptr %8) #10
  %30 = load i32, ptr %4, align 4
  ret i32 %30
}

; Function Attrs: nounwind uwtable
define internal i32 @vaapi_encode_h265_write_slice_header(ptr noundef %0, ptr noundef %1, ptr noundef %2, ptr noundef %3, ptr noundef %4) #3 {
  %6 = alloca ptr, align 8
  %7 = alloca ptr, align 8
  %8 = alloca ptr, align 8
  %9 = alloca ptr, align 8
  %10 = alloca ptr, align 8
  %11 = alloca ptr, align 8
  %12 = alloca ptr, align 8
  %13 = alloca i32, align 4
  store ptr %0, ptr %6, align 8, !tbaa !4
  store ptr %1, ptr %7, align 8, !tbaa !249
  store ptr %2, ptr %8, align 8, !tbaa !321
  store ptr %3, ptr %9, align 8, !tbaa !399
  store ptr %4, ptr %10, align 8, !tbaa !400
  call void @llvm.lifetime.start.p0(i64 8, ptr %11) #10
  %14 = load ptr, ptr %6, align 8, !tbaa !4
  %15 = getelementptr inbounds nuw %struct.AVCodecContext, ptr %14, i32 0, i32 6
  %16 = load ptr, ptr %15, align 8, !tbaa !9
  store ptr %16, ptr %11, align 8, !tbaa !31
  call void @llvm.lifetime.start.p0(i64 8, ptr %12) #10
  %17 = load ptr, ptr %11, align 8, !tbaa !31
  %18 = getelementptr inbounds nuw %struct.VAAPIEncodeH265Context, ptr %17, i32 0, i32 21
  store ptr %18, ptr %12, align 8, !tbaa !402
  call void @llvm.lifetime.start.p0(i64 4, ptr %13) #10
  %19 = load ptr, ptr %11, align 8, !tbaa !31
  %20 = getelementptr inbounds nuw %struct.VAAPIEncodeH265Context, ptr %19, i32 0, i32 22
  %21 = load i32, ptr %20, align 8, !tbaa !272
  %22 = icmp ne i32 %21, 0
  br i1 %22, label %23, label %35

23:                                               ; preds = %5
  %24 = load ptr, ptr %6, align 8, !tbaa !4
  %25 = load ptr, ptr %12, align 8, !tbaa !402
  %26 = load ptr, ptr %11, align 8, !tbaa !31
  %27 = getelementptr inbounds nuw %struct.VAAPIEncodeH265Context, ptr %26, i32 0, i32 14
  %28 = call i32 @vaapi_encode_h265_add_nal(ptr noundef %24, ptr noundef %25, ptr noundef %27)
  store i32 %28, ptr %13, align 4, !tbaa !92
  %29 = load i32, ptr %13, align 4, !tbaa !92
  %30 = icmp slt i32 %29, 0
  br i1 %30, label %31, label %32

31:                                               ; preds = %23
  br label %50

32:                                               ; preds = %23
  %33 = load ptr, ptr %11, align 8, !tbaa !31
  %34 = getelementptr inbounds nuw %struct.VAAPIEncodeH265Context, ptr %33, i32 0, i32 22
  store i32 0, ptr %34, align 8, !tbaa !272
  br label %35

35:                                               ; preds = %32, %5
  %36 = load ptr, ptr %6, align 8, !tbaa !4
  %37 = load ptr, ptr %12, align 8, !tbaa !402
  %38 = load ptr, ptr %11, align 8, !tbaa !31
  %39 = getelementptr inbounds nuw %struct.VAAPIEncodeH265Context, ptr %38, i32 0, i32 15
  %40 = call i32 @vaapi_encode_h265_add_nal(ptr noundef %36, ptr noundef %37, ptr noundef %39)
  store i32 %40, ptr %13, align 4, !tbaa !92
  %41 = load i32, ptr %13, align 4, !tbaa !92
  %42 = icmp slt i32 %41, 0
  br i1 %42, label %43, label %44

43:                                               ; preds = %35
  br label %50

44:                                               ; preds = %35
  %45 = load ptr, ptr %6, align 8, !tbaa !4
  %46 = load ptr, ptr %9, align 8, !tbaa !399
  %47 = load ptr, ptr %10, align 8, !tbaa !400
  %48 = load ptr, ptr %12, align 8, !tbaa !402
  %49 = call i32 @vaapi_encode_h265_write_access_unit(ptr noundef %45, ptr noundef %46, ptr noundef %47, ptr noundef %48)
  store i32 %49, ptr %13, align 4, !tbaa !92
  br label %50

50:                                               ; preds = %44, %43, %31
  %51 = load ptr, ptr %12, align 8, !tbaa !402
  call void @ff_cbs_fragment_reset(ptr noundef %51)
  %52 = load i32, ptr %13, align 4, !tbaa !92
  call void @llvm.lifetime.end.p0(i64 4, ptr %13) #10
  call void @llvm.lifetime.end.p0(i64 8, ptr %12) #10
  call void @llvm.lifetime.end.p0(i64 8, ptr %11) #10
  ret i32 %52
}