; Function Attrs: nounwind uwtable
define internal range(i32 -2147483648, 1) i32 @vaapi_encode_h265_write_slice_header(ptr noundef %0, ptr readnone captures(none) %1, ptr readnone captures(none) %2, ptr noundef writeonly captures(none) %3, ptr noundef captures(none) %4) #3 {
  %6 = getelementptr inbounds nuw i8, ptr %0, i64 32
  %7 = load ptr, ptr %6, align 8, !tbaa !4
  %8 = getelementptr inbounds nuw i8, ptr %7, i64 7965752
  %9 = getelementptr inbounds nuw i8, ptr %7, i64 7965800
  %10 = load i32, ptr %9, align 8, !tbaa !203
  %.not = icmp eq i32 %10, 0
  br i1 %.not, label %19, label %11

11:                                               ; preds = %5
  %12 = getelementptr inbounds nuw i8, ptr %7, i64 7953864
  %13 = load i8, ptr %12, align 1, !tbaa !298
  %14 = zext i8 %13 to i32
  %15 = tail call i32 @ff_cbs_insert_unit_content(ptr noundef nonnull %8, i32 noundef -1, i32 noundef %14, ptr noundef nonnull %12, ptr noundef null) #9
  %16 = icmp slt i32 %15, 0
  br i1 %16, label %vaapi_encode_h265_add_nal.exit.thread, label %vaapi_encode_h265_add_nal.exit

vaapi_encode_h265_add_nal.exit.thread:            ; preds = %11
  %17 = load i8, ptr %12, align 1, !tbaa !298
  %18 = zext i8 %17 to i32
  tail call void (ptr, i32, ptr, ...) @av_log(ptr noundef nonnull %0, i32 noundef 16, ptr noundef nonnull @.str.105, i32 noundef %18) #9
  br label %vaapi_encode_h265_write_access_unit.exit

vaapi_encode_h265_add_nal.exit:                   ; preds = %11
  store i32 0, ptr %9, align 8, !tbaa !203
  br label %19

19:                                               ; preds = %vaapi_encode_h265_add_nal.exit, %5
  %20 = getelementptr inbounds nuw i8, ptr %7, i64 7953872
  %21 = load i8, ptr %20, align 1, !tbaa !298
  %22 = zext i8 %21 to i32
  %23 = tail call i32 @ff_cbs_insert_unit_content(ptr noundef nonnull %8, i32 noundef -1, i32 noundef %22, ptr noundef nonnull %20, ptr noundef null) #9
  %24 = icmp slt i32 %23, 0
  br i1 %24, label %vaapi_encode_h265_add_nal.exit20.thread, label %vaapi_encode_h265_add_nal.exit20

vaapi_encode_h265_add_nal.exit20.thread:          ; preds = %19
  %25 = load i8, ptr %20, align 1, !tbaa !298
  %26 = zext i8 %25 to i32
  tail call void (ptr, i32, ptr, ...) @av_log(ptr noundef nonnull %0, i32 noundef 16, ptr noundef nonnull @.str.105, i32 noundef %26) #9
  br label %vaapi_encode_h265_write_access_unit.exit

vaapi_encode_h265_add_nal.exit20:                 ; preds = %19
  %27 = load ptr, ptr %6, align 8, !tbaa !4
  %28 = getelementptr inbounds nuw i8, ptr %27, i64 7965744
  %29 = load ptr, ptr %28, align 8, !tbaa !299
  %30 = tail call i32 @ff_cbs_write_fragment_data(ptr noundef %29, ptr noundef nonnull %8) #9
  %31 = icmp slt i32 %30, 0
  br i1 %31, label %32, label %33

32:                                               ; preds = %vaapi_encode_h265_add_nal.exit20
  tail call void (ptr, i32, ptr, ...) @av_log(ptr noundef nonnull %0, i32 noundef 16, ptr noundef nonnull @.str.106) #9
  br label %vaapi_encode_h265_write_access_unit.exit

33:                                               ; preds = %vaapi_encode_h265_add_nal.exit20
  %34 = load i64, ptr %4, align 8, !tbaa !226
  %35 = getelementptr inbounds nuw i8, ptr %7, i64 7965760
  %36 = load i64, ptr %35, align 8, !tbaa !300
  %37 = shl i64 %36, 3
  %38 = getelementptr inbounds nuw i8, ptr %7, i64 7965768
  %39 = load i64, ptr %38, align 8, !tbaa !301
  %40 = sub i64 %37, %39
  %41 = icmp ult i64 %34, %40
  br i1 %41, label %42, label %43

42:                                               ; preds = %33
  tail call void (ptr, i32, ptr, ...) @av_log(ptr noundef nonnull %0, i32 noundef 16, ptr noundef nonnull @.str.107, i64 noundef %34, i64 noundef %40) #9
  br label %vaapi_encode_h265_write_access_unit.exit

43:                                               ; preds = %33
  %44 = load ptr, ptr %8, align 8, !tbaa !302
  tail call void @llvm.memcpy.p0.p0.i64(ptr align 1 %3, ptr align 1 %44, i64 %36, i1 false)
  %45 = load i64, ptr %35, align 8, !tbaa !300
  %46 = shl i64 %45, 3
  %47 = load i64, ptr %38, align 8, !tbaa !301
  %48 = sub i64 %46, %47
  store i64 %48, ptr %4, align 8, !tbaa !226
  br label %vaapi_encode_h265_write_access_unit.exit

vaapi_encode_h265_write_access_unit.exit:         ; preds = %43, %42, %32, %vaapi_encode_h265_add_nal.exit20.thread, %vaapi_encode_h265_add_nal.exit.thread
  %.0 = phi i32 [ %15, %vaapi_encode_h265_add_nal.exit.thread ], [ %23, %vaapi_encode_h265_add_nal.exit20.thread ], [ %30, %32 ], [ -28, %42 ], [ 0, %43 ]
  tail call void @ff_cbs_fragment_reset(ptr noundef nonnull %8) #9
  ret i32 %.0
}